target datalayout = "e-m:e-p270:32:32-p271:32:32-p272:64:64-i64:64-i128:128-f80:128-n8:16:32:64-S128"
target triple = "x86_64-pc-linux-gnu"

%struct._stritem = type { ptr, ptr, ptr, i32, i32, i32, i16, i16, i8, i8, [0 x %union.anon] }
%union.anon = type { i64 }

@heads = internal global [256 x ptr] zeroinitializer, align 16
@tails = internal global [256 x ptr] zeroinitializer, align 16

; Function Attrs: nounwind uwtable
define dso_local ptr @do_item_crawl_q(ptr noundef %0) #0 {
  %2 = alloca ptr, align 8
  %3 = alloca ptr, align 8
  %4 = alloca ptr, align 8
  %5 = alloca ptr, align 8
  %6 = alloca i32, align 4
  store ptr %0, ptr %3, align 8, !tbaa !16
  call void @llvm.lifetime.start.p0(i64 8, ptr %4) #9
  call void @llvm.lifetime.start.p0(i64 8, ptr %5) #9
  %7 = load ptr, ptr %3, align 8, !tbaa !16
  %8 = getelementptr inbounds nuw %struct._stritem, ptr %7, i32 0, i32 8
  %9 = load i8, ptr %8, align 8, !tbaa !30
  %10 = zext i8 %9 to i64
  %11 = getelementptr inbounds nuw [256 x ptr], ptr @heads, i64 0, i64 %10
  store ptr %11, ptr %4, align 8, !tbaa !70
  %12 = load ptr, ptr %3, align 8, !tbaa !16
  %13 = getelementptr inbounds nuw %struct._stritem, ptr %12, i32 0, i32 8
  %14 = load i8, ptr %13, align 8, !tbaa !30
  %15 = zext i8 %14 to i64
  %16 = getelementptr inbounds nuw [256 x ptr], ptr @tails, i64 0, i64 %15
  store ptr %16, ptr %5, align 8, !tbaa !70
  %17 = load ptr, ptr %3, align 8, !tbaa !16
  %18 = getelementptr inbounds nuw %struct._stritem, ptr %17, i32 0, i32 1
  %19 = load ptr, ptr %18, align 8, !tbaa !16
  %20 = icmp eq ptr %19, null
  br i1 %20, label %21, label %36

21:                                               ; preds = %1
  %22 = load ptr, ptr %3, align 8, !tbaa !16
  %23 = getelementptr inbounds nuw %struct._stritem, ptr %22, i32 0, i32 0
  %24 = load ptr, ptr %23, align 8, !tbaa !16
  %25 = icmp ne ptr %24, null
  br i1 %25, label %26, label %35

26:                                               ; preds = %21
  %27 = load ptr, ptr %3, align 8, !tbaa !16
  %28 = getelementptr inbounds nuw %struct._stritem, ptr %27, i32 0, i32 0
  %29 = load ptr, ptr %28, align 8, !tbaa !16
  %30 = load ptr, ptr %4, align 8, !tbaa !70
  store ptr %29, ptr %30, align 8, !tbaa !16
  %31 = load ptr, ptr %3, align 8, !tbaa !16
  %32 = getelementptr inbounds nuw %struct._stritem, ptr %31, i32 0, i32 0
  %33 = load ptr, ptr %32, align 8, !tbaa !16
  %34 = getelementptr inbounds nuw %struct._stritem, ptr %33, i32 0, i32 1
  store ptr null, ptr %34, align 8, !tbaa !16
  br label %35

35:                                               ; preds = %26, %21
  store ptr null, ptr %2, align 8
  store i32 1, ptr %6, align 4
  br label %119

36:                                               ; preds = %1
  %37 = load ptr, ptr %3, align 8, !tbaa !16
  %38 = getelementptr inbounds nuw %struct._stritem, ptr %37, i32 0, i32 1
  %39 = load ptr, ptr %38, align 8, !tbaa !16
  %40 = icmp ne ptr %39, null
  br i1 %40, label %41, label %115

41:                                               ; preds = %36
  %42 = load ptr, ptr %4, align 8, !tbaa !70
  %43 = load ptr, ptr %42, align 8, !tbaa !16
  %44 = load ptr, ptr %3, align 8, !tbaa !16
  %45 = getelementptr inbounds nuw %struct._stritem, ptr %44, i32 0, i32 1
  %46 = load ptr, ptr %45, align 8, !tbaa !16
  %47 = icmp eq ptr %43, %46
  br i1 %47, label %48, label %51

48:                                               ; preds = %41
  %49 = load ptr, ptr %3, align 8, !tbaa !16
  %50 = load ptr, ptr %4, align 8, !tbaa !70
  store ptr %49, ptr %50, align 8, !tbaa !16
  br label %51

51:                                               ; preds = %48, %41
  %52 = load ptr, ptr %5, align 8, !tbaa !70
  %53 = load ptr, ptr %52, align 8, !tbaa !16
  %54 = load ptr, ptr %3, align 8, !tbaa !16
  %55 = icmp eq ptr %53, %54
  br i1 %55, label %56, label %61

56:                                               ; preds = %51
  %57 = load ptr, ptr %3, align 8, !tbaa !16
  %58 = getelementptr inbounds nuw %struct._stritem, ptr %57, i32 0, i32 1
  %59 = load ptr, ptr %58, align 8, !tbaa !16
  %60 = load ptr, ptr %5, align 8, !tbaa !70
  store ptr %59, ptr %60, align 8, !tbaa !16
  br label %61

61:                                               ; preds = %56, %51
  %62 = load ptr, ptr %3, align 8, !tbaa !16
  %63 = getelementptr inbounds nuw %struct._stritem, ptr %62, i32 0, i32 0
  %64 = load ptr, ptr %63, align 8, !tbaa !16
  %65 = icmp ne ptr %64, null
  br i1 %65, label %66, label %81

66:                                               ; preds = %61
  %67 = load ptr, ptr %3, align 8, !tbaa !16
  %68 = getelementptr inbounds nuw %struct._stritem, ptr %67, i32 0, i32 0
  %69 = load ptr, ptr %68, align 8, !tbaa !16
  %70 = load ptr, ptr %3, align 8, !tbaa !16
  %71 = getelementptr inbounds nuw %struct._stritem, ptr %70, i32 0, i32 1
  %72 = load ptr, ptr %71, align 8, !tbaa !16
  %73 = getelementptr inbounds nuw %struct._stritem, ptr %72, i32 0, i32 0
  store ptr %69, ptr %73, align 8, !tbaa !16
  %74 = load ptr, ptr %3, align 8, !tbaa !16
  %75 = getelementptr inbounds nuw %struct._stritem, ptr %74, i32 0, i32 1
  %76 = load ptr, ptr %75, align 8, !tbaa !16
  %77 = load ptr, ptr %3, align 8, !tbaa !16
  %78 = getelementptr inbounds nuw %struct._stritem, ptr %77, i32 0, i32 0
  %79 = load ptr, ptr %78, align 8, !tbaa !16
  %80 = getelementptr inbounds nuw %struct._stritem, ptr %79, i32 0, i32 1
  store ptr %76, ptr %80, align 8, !tbaa !16
  br label %86

81:                                               ; preds = %61
  %82 = load ptr, ptr %3, align 8, !tbaa !16
  %83 = getelementptr inbounds nuw %struct._stritem, ptr %82, i32 0, i32 1
  %84 = load ptr, ptr %83, align 8, !tbaa !16
  %85 = getelementptr inbounds nuw %struct._stritem, ptr %84, i32 0, i32 0
  store ptr null, ptr %85, align 8, !tbaa !16
  br label %86

86:                                               ; preds = %81, %66
  %87 = load ptr, ptr %3, align 8, !tbaa !16
  %88 = getelementptr inbounds nuw %struct._stritem, ptr %87, i32 0, i32 1
  %89 = load ptr, ptr %88, align 8, !tbaa !16
  %90 = load ptr, ptr %3, align 8, !tbaa !16
  %91 = getelementptr inbounds nuw %struct._stritem, ptr %90, i32 0, i32 0
  store ptr %89, ptr %91, align 8, !tbaa !16
  %92 = load ptr, ptr %3, align 8, !tbaa !16
  %93 = getelementptr inbounds nuw %struct._stritem, ptr %92, i32 0, i32 0
  %94 = load ptr, ptr %93, align 8, !tbaa !16
  %95 = getelementptr inbounds nuw %struct._stritem, ptr %94, i32 0, i32 1
  %96 = load ptr, ptr %95, align 8, !tbaa !16
  %97 = load ptr, ptr %3, align 8, !tbaa !16
  %98 = getelementptr inbounds nuw %struct._stritem, ptr %97, i32 0, i32 1
  store ptr %96, ptr %98, align 8, !tbaa !16
  %99 = load ptr, ptr %3, align 8, !tbaa !16
  %100 = load ptr, ptr %3, align 8, !tbaa !16
  %101 = getelementptr inbounds nuw %struct._stritem, ptr %100, i32 0, i32 0
  %102 = load ptr, ptr %101, align 8, !tbaa !16
  %103 = getelementptr inbounds nuw %struct._stritem, ptr %102, i32 0, i32 1
  store ptr %99, ptr %103, align 8, !tbaa !16
  %104 = load ptr, ptr %3, align 8, !tbaa !16
  %105 = getelementptr inbounds nuw %struct._stritem, ptr %104, i32 0, i32 1
  %106 = load ptr, ptr %105, align 8, !tbaa !16
  %107 = icmp ne ptr %106, null
  br i1 %107, label %108, label %114

108:                                              ; preds = %86
  %109 = load ptr, ptr %3, align 8, !tbaa !16
  %110 = load ptr, ptr %3, align 8, !tbaa !16
  %111 = getelementptr inbounds nuw %struct._stritem, ptr %110, i32 0, i32 1
  %112 = load ptr, ptr %111, align 8, !tbaa !16
  %113 = getelementptr inbounds nuw %struct._stritem, ptr %112, i32 0, i32 0
  store ptr %109, ptr %113, align 8, !tbaa !16
  br label %114

114:                                              ; preds = %108, %86
  br label %115

115:                                              ; preds = %114, %36
  %116 = load ptr, ptr %3, align 8, !tbaa !16
  %117 = getelementptr inbounds nuw %struct._stritem, ptr %116, i32 0, i32 0
  %118 = load ptr, ptr %117, align 8, !tbaa !16
  store ptr %118, ptr %2, align 8
  store i32 1, ptr %6, align 4
  br label %119

119:                                              ; preds = %115, %35
  call void @llvm.lifetime.end.p0(i64 8, ptr %5) #9
  call void @llvm.lifetime.end.p0(i64 8, ptr %4) #9
  %120 = load ptr, ptr %2, align 8
  ret ptr %120
}