; Function Attrs: mustprogress nofree norecurse nosync nounwind willreturn memory(readwrite, inaccessiblemem: none) uwtable
define dso_local ptr @do_item_crawl_q(ptr noundef %0) local_unnamed_addr #9 {
  %2 = getelementptr inbounds nuw i8, ptr %0, i64 40
  %3 = load i8, ptr %2, align 8, !tbaa !30
  %4 = zext i8 %3 to i64
  %5 = getelementptr inbounds nuw [256 x ptr], ptr @heads, i64 0, i64 %4
  %6 = getelementptr inbounds nuw [256 x ptr], ptr @tails, i64 0, i64 %4
  %7 = getelementptr inbounds nuw i8, ptr %0, i64 8
  %8 = load ptr, ptr %7, align 8, !tbaa !28
  %9 = icmp eq ptr %8, null
  br i1 %9, label %10, label %14

10:                                               ; preds = %1
  %11 = load ptr, ptr %0, align 8, !tbaa !28
  %.not38 = icmp eq ptr %11, null
  br i1 %.not38, label %37, label %12

12:                                               ; preds = %10
  store ptr %11, ptr %5, align 8, !tbaa !28
  %13 = getelementptr inbounds nuw i8, ptr %11, i64 8
  store ptr null, ptr %13, align 8, !tbaa !28
  br label %37

14:                                               ; preds = %1
  %15 = load ptr, ptr %5, align 8, !tbaa !28
  %16 = icmp eq ptr %15, %8
  br i1 %16, label %17, label %18

17:                                               ; preds = %14
  store ptr %0, ptr %5, align 8, !tbaa !28
  br label %18

18:                                               ; preds = %17, %14
  %19 = load ptr, ptr %6, align 8, !tbaa !28
  %20 = icmp eq ptr %19, %0
  br i1 %20, label %21, label %22

21:                                               ; preds = %18
  store ptr %8, ptr %6, align 8, !tbaa !28
  br label %22

22:                                               ; preds = %21, %18
  %23 = load ptr, ptr %0, align 8, !tbaa !28
  %.not = icmp eq ptr %23, null
  br i1 %.not, label %28, label %24

24:                                               ; preds = %22
  store ptr %23, ptr %8, align 8, !tbaa !28
  %25 = load ptr, ptr %7, align 8, !tbaa !28
  %26 = load ptr, ptr %0, align 8, !tbaa !28
  %27 = getelementptr inbounds nuw i8, ptr %26, i64 8
  store ptr %25, ptr %27, align 8, !tbaa !28
  br label %29

28:                                               ; preds = %22
  store ptr null, ptr %8, align 8, !tbaa !28
  %.pre = load ptr, ptr %7, align 8, !tbaa !28
  br label %29

29:                                               ; preds = %28, %24
  %30 = phi ptr [ %.pre, %28 ], [ %25, %24 ]
  store ptr %30, ptr %0, align 8, !tbaa !28
  %31 = getelementptr inbounds nuw i8, ptr %30, i64 8
  %32 = load ptr, ptr %31, align 8, !tbaa !28
  store ptr %32, ptr %7, align 8, !tbaa !28
  store ptr %0, ptr %31, align 8, !tbaa !28
  %33 = load ptr, ptr %7, align 8, !tbaa !28
  %.not37 = icmp eq ptr %33, null
  br i1 %.not37, label %35, label %34

34:                                               ; preds = %29
  store ptr %0, ptr %33, align 8, !tbaa !28
  br label %35

35:                                               ; preds = %29, %34
  %36 = load ptr, ptr %0, align 8, !tbaa !28
  br label %37

37:                                               ; preds = %10, %12, %35
  %.0 = phi ptr [ %36, %35 ], [ null, %12 ], [ null, %10 ]
  ret ptr %.0
}